target datalayout = "e-m:e-p270:32:32-p271:32:32-p272:64:64-i64:64-i128:128-f80:128-n8:16:32:64-S128"
target triple = "x86_64-pc-linux-gnu"

%struct.Kit_Sop_t_ = type { i32, i32, ptr }
%struct.Kit_Edge_t_ = type { i32 }

; Function Attrs: inlinehint nounwind uwtable
define internal i32 @Kit_SopCubeNum(ptr noundef %0) #2 {
  %2 = alloca ptr, align 8
  store ptr %0, ptr %2, align 8, !tbaa !10
  %3 = load ptr, ptr %2, align 8, !tbaa !10
  %4 = getelementptr inbounds nuw %struct.Kit_Sop_t_, ptr %3, i32 0, i32 1
  %5 = load i32, ptr %4, align 4, !tbaa !32
  ret i32 %5
}

; Function Attrs: nounwind uwtable
define internal i32 @Kit_SopFactorTrivial(ptr noundef %0, ptr noundef %1, i32 noundef %2) #0 {
  %4 = alloca %struct.Kit_Edge_t_, align 4
  %5 = alloca ptr, align 8
  %6 = alloca ptr, align 8
  %7 = alloca i32, align 4
  store ptr %0, ptr %5, align 8, !tbaa !12
  store ptr %1, ptr %6, align 8, !tbaa !10
  store i32 %2, ptr %7, align 4, !tbaa !8
  %8 = load ptr, ptr %5, align 8, !tbaa !12
  %9 = load ptr, ptr %6, align 8, !tbaa !10
  %10 = getelementptr inbounds nuw %struct.Kit_Sop_t_, ptr %9, i32 0, i32 2
  %11 = load ptr, ptr %10, align 8, !tbaa !30
  %12 = load ptr, ptr %6, align 8, !tbaa !10
  %13 = getelementptr inbounds nuw %struct.Kit_Sop_t_, ptr %12, i32 0, i32 1
  %14 = load i32, ptr %13, align 4, !tbaa !32
  %15 = load i32, ptr %7, align 4, !tbaa !8
  %16 = call i32 @Kit_SopFactorTrivial_rec(ptr noundef %8, ptr noundef %11, i32 noundef %14, i32 noundef %15)
  %17 = getelementptr inbounds nuw %struct.Kit_Edge_t_, ptr %4, i32 0, i32 0
  store i32 %16, ptr %17, align 4
  %18 = getelementptr inbounds nuw %struct.Kit_Edge_t_, ptr %4, i32 0, i32 0
  %19 = load i32, ptr %18, align 4
  ret i32 %19
}

; Function Attrs: nounwind uwtable
define internal i32 @Kit_SopFactor_rec(ptr noundef %0, ptr noundef %1, i32 noundef %2, ptr noundef %3) #0 {
  %5 = alloca %struct.Kit_Edge_t_, align 4
  %6 = alloca ptr, align 8
  %7 = alloca ptr, align 8
  %8 = alloca i32, align 4
  %9 = alloca ptr, align 8
  %10 = alloca %struct.Kit_Sop_t_, align 8
  %11 = alloca %struct.Kit_Sop_t_, align 8
  %12 = alloca %struct.Kit_Sop_t_, align 8
  %13 = alloca %struct.Kit_Sop_t_, align 8
  %14 = alloca ptr, align 8
  %15 = alloca ptr, align 8
  %16 = alloca ptr, align 8
  %17 = alloca ptr, align 8
  %18 = alloca %struct.Kit_Edge_t_, align 4
  %19 = alloca %struct.Kit_Edge_t_, align 4
  %20 = alloca %struct.Kit_Edge_t_, align 4
  %21 = alloca %struct.Kit_Edge_t_, align 4
  %22 = alloca i32, align 4
  %23 = alloca %struct.Kit_Edge_t_, align 4
  %24 = alloca %struct.Kit_Edge_t_, align 4
  %25 = alloca %struct.Kit_Edge_t_, align 4
  %26 = alloca %struct.Kit_Edge_t_, align 4
  store ptr %0, ptr %6, align 8, !tbaa !12
  store ptr %1, ptr %7, align 8, !tbaa !10
  store i32 %2, ptr %8, align 4, !tbaa !8
  store ptr %3, ptr %9, align 8, !tbaa !3
  call void @llvm.lifetime.start.p0(i64 16, ptr %10) #8
  call void @llvm.lifetime.start.p0(i64 16, ptr %11) #8
  call void @llvm.lifetime.start.p0(i64 16, ptr %12) #8
  call void @llvm.lifetime.start.p0(i64 16, ptr %13) #8
  call void @llvm.lifetime.start.p0(i64 8, ptr %14) #8
  store ptr %10, ptr %14, align 8, !tbaa !10
  call void @llvm.lifetime.start.p0(i64 8, ptr %15) #8
  store ptr %11, ptr %15, align 8, !tbaa !10
  call void @llvm.lifetime.start.p0(i64 8, ptr %16) #8
  store ptr %12, ptr %16, align 8, !tbaa !10
  call void @llvm.lifetime.start.p0(i64 8, ptr %17) #8
  store ptr %13, ptr %17, align 8, !tbaa !10
  call void @llvm.lifetime.start.p0(i64 4, ptr %18) #8
  call void @llvm.lifetime.start.p0(i64 4, ptr %19) #8
  call void @llvm.lifetime.start.p0(i64 4, ptr %20) #8
  call void @llvm.lifetime.start.p0(i64 4, ptr %21) #8
  %27 = load ptr, ptr %14, align 8, !tbaa !10
  %28 = load ptr, ptr %7, align 8, !tbaa !10
  %29 = load i32, ptr %8, align 4, !tbaa !8
  %30 = load ptr, ptr %9, align 8, !tbaa !3
  %31 = call i32 @Kit_SopDivisor(ptr noundef %27, ptr noundef %28, i32 noundef %29, ptr noundef %30)
  %32 = icmp ne i32 %31, 0
  br i1 %32, label %39, label %33

33:                                               ; preds = %4
  %34 = load ptr, ptr %6, align 8, !tbaa !12
  %35 = load ptr, ptr %7, align 8, !tbaa !10
  %36 = load i32, ptr %8, align 4, !tbaa !8
  %37 = call i32 @Kit_SopFactorTrivial(ptr noundef %34, ptr noundef %35, i32 noundef %36)
  %38 = getelementptr inbounds nuw %struct.Kit_Edge_t_, ptr %5, i32 0, i32 0
  store i32 %37, ptr %38, align 4
  store i32 1, ptr %22, align 4
  br label %115

39:                                               ; preds = %4
  %40 = load ptr, ptr %7, align 8, !tbaa !10
  %41 = load ptr, ptr %14, align 8, !tbaa !10
  %42 = load ptr, ptr %15, align 8, !tbaa !10
  %43 = load ptr, ptr %16, align 8, !tbaa !10
  %44 = load ptr, ptr %9, align 8, !tbaa !3
  call void @Kit_SopDivideInternal(ptr noundef %40, ptr noundef %41, ptr noundef %42, ptr noundef %43, ptr noundef %44)
  %45 = load ptr, ptr %15, align 8, !tbaa !10
  %46 = call i32 @Kit_SopCubeNum(ptr noundef %45)
  %47 = icmp eq i32 %46, 1
  br i1 %47, label %48, label %56

48:                                               ; preds = %39
  %49 = load ptr, ptr %6, align 8, !tbaa !12
  %50 = load ptr, ptr %7, align 8, !tbaa !10
  %51 = load ptr, ptr %15, align 8, !tbaa !10
  %52 = load i32, ptr %8, align 4, !tbaa !8
  %53 = load ptr, ptr %9, align 8, !tbaa !3
  %54 = call i32 @Kit_SopFactorLF_rec(ptr noundef %49, ptr noundef %50, ptr noundef %51, i32 noundef %52, ptr noundef %53)
  %55 = getelementptr inbounds nuw %struct.Kit_Edge_t_, ptr %5, i32 0, i32 0
  store i32 %54, ptr %55, align 4
  store i32 1, ptr %22, align 4
  br label %115

56:                                               ; preds = %39
  %57 = load ptr, ptr %15, align 8, !tbaa !10
  call void @Kit_SopMakeCubeFree(ptr noundef %57)
  %58 = load ptr, ptr %7, align 8, !tbaa !10
  %59 = load ptr, ptr %15, align 8, !tbaa !10
  %60 = load ptr, ptr %14, align 8, !tbaa !10
  %61 = load ptr, ptr %16, align 8, !tbaa !10
  %62 = load ptr, ptr %9, align 8, !tbaa !3
  call void @Kit_SopDivideInternal(ptr noundef %58, ptr noundef %59, ptr noundef %60, ptr noundef %61, ptr noundef %62)
  %63 = load ptr, ptr %14, align 8, !tbaa !10
  %64 = call i32 @Kit_SopIsCubeFree(ptr noundef %63)
  %65 = icmp ne i32 %64, 0
  br i1 %65, label %66, label %104

66:                                               ; preds = %56
  call void @llvm.lifetime.start.p0(i64 4, ptr %23) #8
  %67 = load ptr, ptr %6, align 8, !tbaa !12
  %68 = load ptr, ptr %14, align 8, !tbaa !10
  %69 = load i32, ptr %8, align 4, !tbaa !8
  %70 = load ptr, ptr %9, align 8, !tbaa !3
  %71 = call i32 @Kit_SopFactor_rec(ptr noundef %67, ptr noundef %68, i32 noundef %69, ptr noundef %70)
  %72 = getelementptr inbounds nuw %struct.Kit_Edge_t_, ptr %23, i32 0, i32 0
  store i32 %71, ptr %72, align 4
  call void @llvm.memcpy.p0.p0.i64(ptr align 4 %18, ptr align 4 %23, i64 4, i1 false), !tbaa.struct !14
  call void @llvm.lifetime.end.p0(i64 4, ptr %23) #8
  call void @llvm.lifetime.start.p0(i64 4, ptr %24) #8
  %73 = load ptr, ptr %6, align 8, !tbaa !12
  %74 = load ptr, ptr %15, align 8, !tbaa !10
  %75 = load i32, ptr %8, align 4, !tbaa !8
  %76 = load ptr, ptr %9, align 8, !tbaa !3
  %77 = call i32 @Kit_SopFactor_rec(ptr noundef %73, ptr noundef %74, i32 noundef %75, ptr noundef %76)
  %78 = getelementptr inbounds nuw %struct.Kit_Edge_t_, ptr %24, i32 0, i32 0
  store i32 %77, ptr %78, align 4
  call void @llvm.memcpy.p0.p0.i64(ptr align 4 %19, ptr align 4 %24, i64 4, i1 false), !tbaa.struct !14
  call void @llvm.lifetime.end.p0(i64 4, ptr %24) #8
  call void @llvm.lifetime.start.p0(i64 4, ptr %25) #8
  %79 = load ptr, ptr %6, align 8, !tbaa !12
  %80 = getelementptr inbounds nuw %struct.Kit_Edge_t_, ptr %18, i32 0, i32 0
  %81 = load i32, ptr %80, align 4
  %82 = getelementptr inbounds nuw %struct.Kit_Edge_t_, ptr %19, i32 0, i32 0
  %83 = load i32, ptr %82, align 4
  %84 = call i32 @Kit_GraphAddNodeAnd(ptr noundef %79, i32 %81, i32 %83)
  %85 = getelementptr inbounds nuw %struct.Kit_Edge_t_, ptr %25, i32 0, i32 0
  store i32 %84, ptr %85, align 4
  call void @llvm.memcpy.p0.p0.i64(ptr align 4 %21, ptr align 4 %25, i64 4, i1 false), !tbaa.struct !14
  call void @llvm.lifetime.end.p0(i64 4, ptr %25) #8
  %86 = load ptr, ptr %16, align 8, !tbaa !10
  %87 = call i32 @Kit_SopCubeNum(ptr noundef %86)
  %88 = icmp eq i32 %87, 0
  br i1 %88, label %89, label %90

89:                                               ; preds = %66
  call void @llvm.memcpy.p0.p0.i64(ptr align 4 %5, ptr align 4 %21, i64 4, i1 false), !tbaa.struct !14
  store i32 1, ptr %22, align 4
  br label %115

90:                                               ; preds = %66
  call void @llvm.lifetime.start.p0(i64 4, ptr %26) #8
  %91 = load ptr, ptr %6, align 8, !tbaa !12
  %92 = load ptr, ptr %16, align 8, !tbaa !10
  %93 = load i32, ptr %8, align 4, !tbaa !8
  %94 = load ptr, ptr %9, align 8, !tbaa !3
  %95 = call i32 @Kit_SopFactor_rec(ptr noundef %91, ptr noundef %92, i32 noundef %93, ptr noundef %94)
  %96 = getelementptr inbounds nuw %struct.Kit_Edge_t_, ptr %26, i32 0, i32 0
  store i32 %95, ptr %96, align 4
  call void @llvm.memcpy.p0.p0.i64(ptr align 4 %20, ptr align 4 %26, i64 4, i1 false), !tbaa.struct !14
  call void @llvm.lifetime.end.p0(i64 4, ptr %26) #8
  %97 = load ptr, ptr %6, align 8, !tbaa !12
  %98 = getelementptr inbounds nuw %struct.Kit_Edge_t_, ptr %21, i32 0, i32 0
  %99 = load i32, ptr %98, align 4
  %100 = getelementptr inbounds nuw %struct.Kit_Edge_t_, ptr %20, i32 0, i32 0
  %101 = load i32, ptr %100, align 4
  %102 = call i32 @Kit_GraphAddNodeOr(ptr noundef %97, i32 %99, i32 %101)
  %103 = getelementptr inbounds nuw %struct.Kit_Edge_t_, ptr %5, i32 0, i32 0
  store i32 %102, ptr %103, align 4
  store i32 1, ptr %22, align 4
  br label %115

104:                                              ; preds = %56
  %105 = load ptr, ptr %17, align 8, !tbaa !10
  %106 = load ptr, ptr %14, align 8, !tbaa !10
  %107 = load ptr, ptr %9, align 8, !tbaa !3
  call void @Kit_SopCommonCubeCover(ptr noundef %105, ptr noundef %106, ptr noundef %107)
  %108 = load ptr, ptr %6, align 8, !tbaa !12
  %109 = load ptr, ptr %7, align 8, !tbaa !10
  %110 = load ptr, ptr %17, align 8, !tbaa !10
  %111 = load i32, ptr %8, align 4, !tbaa !8
  %112 = load ptr, ptr %9, align 8, !tbaa !3
  %113 = call i32 @Kit_SopFactorLF_rec(ptr noundef %108, ptr noundef %109, ptr noundef %110, i32 noundef %111, ptr noundef %112)
  %114 = getelementptr inbounds nuw %struct.Kit_Edge_t_, ptr %5, i32 0, i32 0
  store i32 %113, ptr %114, align 4
  store i32 1, ptr %22, align 4
  br label %115

115:                                              ; preds = %104, %90, %89, %48, %33
  call void @llvm.lifetime.end.p0(i64 4, ptr %21) #8
  call void @llvm.lifetime.end.p0(i64 4, ptr %20) #8
  call void @llvm.lifetime.end.p0(i64 4, ptr %19) #8
  call void @llvm.lifetime.end.p0(i64 4, ptr %18) #8
  call void @llvm.lifetime.end.p0(i64 8, ptr %17) #8
  call void @llvm.lifetime.end.p0(i64 8, ptr %16) #8
  call void @llvm.lifetime.end.p0(i64 8, ptr %15) #8
  call void @llvm.lifetime.end.p0(i64 8, ptr %14) #8
  call void @llvm.lifetime.end.p0(i64 16, ptr %13) #8
  call void @llvm.lifetime.end.p0(i64 16, ptr %12) #8
  call void @llvm.lifetime.end.p0(i64 16, ptr %11) #8
  call void @llvm.lifetime.end.p0(i64 16, ptr %10) #8
  %116 = getelementptr inbounds nuw %struct.Kit_Edge_t_, ptr %5, i32 0, i32 0
  %117 = load i32, ptr %116, align 4
  ret i32 %117
}