; Function Attrs: nounwind uwtable
define internal fastcc i32 @Kit_SopFactor_rec(ptr noundef %0, ptr noundef nonnull %1, i32 noundef %2, ptr noundef %3) unnamed_addr #0 {
  %5 = alloca %struct.Kit_Sop_t_, align 8
  %6 = alloca %struct.Kit_Sop_t_, align 8
  %7 = alloca %struct.Kit_Sop_t_, align 8
  %8 = alloca %struct.Kit_Sop_t_, align 8
  call void @llvm.lifetime.start.p0(i64 16, ptr nonnull %5) #8
  call void @llvm.lifetime.start.p0(i64 16, ptr nonnull %6) #8
  call void @llvm.lifetime.start.p0(i64 16, ptr nonnull %7) #8
  call void @llvm.lifetime.start.p0(i64 16, ptr nonnull %8) #8
  %9 = call i32 @Kit_SopDivisor(ptr noundef nonnull %5, ptr noundef nonnull %1, i32 noundef %2, ptr noundef %3) #8
  %.not = icmp eq i32 %9, 0
  br i1 %.not, label %10, label %14

10:                                               ; preds = %4
  %11 = getelementptr i8, ptr %1, i64 4
  %.val = load i32, ptr %11, align 4, !tbaa !14
  %12 = getelementptr i8, ptr %1, i64 8
  %.val56 = load ptr, ptr %12, align 8, !tbaa !16
  %13 = call i32 @Kit_SopFactorTrivial_rec(ptr noundef %0, ptr noundef %.val56, i32 noundef %.val, i32 noundef %2)
  br label %32

14:                                               ; preds = %4
  call void @Kit_SopDivideInternal(ptr noundef nonnull %1, ptr noundef nonnull %5, ptr noundef nonnull %6, ptr noundef nonnull %7, ptr noundef %3) #8
  %15 = getelementptr inbounds nuw i8, ptr %6, i64 4
  %.val57 = load i32, ptr %15, align 4, !tbaa !14
  %16 = icmp eq i32 %.val57, 1
  br i1 %16, label %17, label %19

17:                                               ; preds = %14
  %18 = call fastcc i32 @Kit_SopFactorLF_rec(ptr noundef %0, ptr noundef %1, ptr noundef %6, i32 noundef %2, ptr noundef %3)
  br label %32

19:                                               ; preds = %14
  call void @Kit_SopMakeCubeFree(ptr noundef nonnull %6) #8
  call void @Kit_SopDivideInternal(ptr noundef nonnull %1, ptr noundef nonnull %6, ptr noundef nonnull %5, ptr noundef nonnull %7, ptr noundef %3) #8
  %20 = call i32 @Kit_SopIsCubeFree(ptr noundef nonnull %5) #8
  %.not55 = icmp eq i32 %20, 0
  br i1 %.not55, label %30, label %21

21:                                               ; preds = %19
  %22 = call fastcc i32 @Kit_SopFactor_rec(ptr noundef %0, ptr noundef %5, i32 noundef %2, ptr noundef %3)
  %23 = call fastcc i32 @Kit_SopFactor_rec(ptr noundef %0, ptr noundef %6, i32 noundef %2, ptr noundef %3)
  %24 = call i32 @Kit_GraphAddNodeAnd(ptr noundef %0, i32 %22, i32 %23) #8
  %25 = getelementptr inbounds nuw i8, ptr %7, i64 4
  %.val58 = load i32, ptr %25, align 4, !tbaa !14
  %26 = icmp eq i32 %.val58, 0
  br i1 %26, label %32, label %27

27:                                               ; preds = %21
  %28 = call fastcc i32 @Kit_SopFactor_rec(ptr noundef %0, ptr noundef %7, i32 noundef %2, ptr noundef %3)
  %29 = call i32 @Kit_GraphAddNodeOr(ptr noundef %0, i32 %24, i32 %28) #8
  br label %32

30:                                               ; preds = %19
  call void @Kit_SopCommonCubeCover(ptr noundef nonnull %8, ptr noundef nonnull %5, ptr noundef %3) #8
  %31 = call fastcc i32 @Kit_SopFactorLF_rec(ptr noundef %0, ptr noundef %1, ptr noundef %8, i32 noundef %2, ptr noundef %3)
  br label %32

32:                                               ; preds = %21, %30, %27, %17, %10
  %.sroa.054.0 = phi i32 [ %18, %17 ], [ %29, %27 ], [ %31, %30 ], [ %13, %10 ], [ %24, %21 ]
  call void @llvm.lifetime.end.p0(i64 16, ptr nonnull %8) #8
  call void @llvm.lifetime.end.p0(i64 16, ptr nonnull %7) #8
  call void @llvm.lifetime.end.p0(i64 16, ptr nonnull %6) #8
  call void @llvm.lifetime.end.p0(i64 16, ptr nonnull %5) #8
  ret i32 %.sroa.054.0
}